target datalayout = "e-m:e-p270:32:32-p271:32:32-p272:64:64-i64:64-i128:128-f80:128-n8:16:32:64-S128"
target triple = "x86_64-pc-linux-gnu"

%"class.cv::WBaseStream" = type { ptr, ptr, ptr, ptr, i32, i32, ptr, i8, ptr }

; Function Attrs: mustprogress uwtable
define hidden void @_ZN2cv11WBaseStream8allocateEv(ptr noundef nonnull align 8 dereferenceable(64) %0) unnamed_addr #1 align 2 {
  %2 = alloca ptr, align 8
  store ptr %0, ptr %2, align 8, !tbaa !59
  %3 = load ptr, ptr %2, align 8
  %4 = getelementptr inbounds nuw %"class.cv::WBaseStream", ptr %3, i32 0, i32 1
  %5 = load ptr, ptr %4, align 8, !tbaa !65
  %6 = icmp ne ptr %5, null
  br i1 %6, label %15, label %7

7:                                                ; preds = %1
  %8 = getelementptr inbounds nuw %"class.cv::WBaseStream", ptr %3, i32 0, i32 4
  %9 = load i32, ptr %8, align 8, !tbaa !68
  %10 = sext i32 %9 to i64
  %11 = icmp slt i64 %10, 0
  %12 = select i1 %11, i64 -1, i64 %10
  %13 = call noalias noundef nonnull ptr @_Znam(i64 noundef %12) #15
  %14 = getelementptr inbounds nuw %"class.cv::WBaseStream", ptr %3, i32 0, i32 1
  store ptr %13, ptr %14, align 8, !tbaa !65
  br label %15

15:                                               ; preds = %7, %1
  %16 = getelementptr inbounds nuw %"class.cv::WBaseStream", ptr %3, i32 0, i32 1
  %17 = load ptr, ptr %16, align 8, !tbaa !65
  %18 = getelementptr inbounds nuw %"class.cv::WBaseStream", ptr %3, i32 0, i32 4
  %19 = load i32, ptr %18, align 8, !tbaa !68
  %20 = sext i32 %19 to i64
  %21 = getelementptr inbounds i8, ptr %17, i64 %20
  %22 = getelementptr inbounds nuw %"class.cv::WBaseStream", ptr %3, i32 0, i32 2
  store ptr %21, ptr %22, align 8, !tbaa !64
  %23 = getelementptr inbounds nuw %"class.cv::WBaseStream", ptr %3, i32 0, i32 1
  %24 = load ptr, ptr %23, align 8, !tbaa !65
  %25 = getelementptr inbounds nuw %"class.cv::WBaseStream", ptr %3, i32 0, i32 3
  store ptr %24, ptr %25, align 8, !tbaa !61
  ret void
}