; Function Attrs: mustprogress uwtable
define hidden void @_ZN2cv11WBaseStream8allocateEv(ptr noundef nonnull align 8 captures(none) dereferenceable(64) initializes((16, 32)) %0) unnamed_addr #1 align 2 {
  %2 = getelementptr inbounds nuw i8, ptr %0, i64 8
  %3 = load ptr, ptr %2, align 8, !tbaa !53
  %.not = icmp eq ptr %3, null
  %4 = getelementptr inbounds nuw i8, ptr %0, i64 32
  %5 = load i32, ptr %4, align 8, !tbaa !50
  br i1 %.not, label %6, label %._crit_edge

6:                                                ; preds = %1
  %narrow = tail call i32 @llvm.smax.i32(i32 %5, i32 -1)
  %7 = sext i32 %narrow to i64
  %8 = tail call noalias noundef nonnull ptr @_Znam(i64 noundef %7) #20
  store ptr %8, ptr %2, align 8, !tbaa !53
  br label %._crit_edge

._crit_edge:                                      ; preds = %1, %6
  %9 = phi ptr [ %8, %6 ], [ %3, %1 ]
  %10 = sext i32 %5 to i64
  %11 = getelementptr inbounds i8, ptr %9, i64 %10
  %12 = getelementptr inbounds nuw i8, ptr %0, i64 16
  store ptr %11, ptr %12, align 8, !tbaa !54
  %13 = getelementptr inbounds nuw i8, ptr %0, i64 24
  store ptr %9, ptr %13, align 8, !tbaa !55
  ret void
}